(dp0
S'elevAC'
p1
I180
sS'azoffset'
p2
F144.41496
sS'eloffset'
p3
F59.578
sS'elgain'
p4
F-0.009
sS'azAC'
p5
I180
sS'elevSP'
p6
I5
sS'azSP'
p7
I5
sS'degtoctsAZ'
p8
F284.444444
sS'azSPm'
p9
I10
sS'degtoctsEL'
p10
I108
sS'azDC'
p11
I180
sS'elevDC'
p12
I180
sS'location'
p13
S'UCSB'
p14
sS'azgain'
p15
F-0.0054931640625
s.